target datalayout = "e-m:e-p270:32:32-p271:32:32-p272:64:64-i64:64-i128:128-f80:128-n8:16:32:64-S128"
target triple = "x86_64-unknown-linux-gnu"

%struct.Token = type { i32, ptr, i64, x86_fp80, ptr, i32, ptr, ptr, ptr, ptr, i32, i32, i8, i8, ptr, ptr }

@.str.25 = private unnamed_addr constant [2 x i8] c"{\00", align 1
@.str.69 = private unnamed_addr constant [2 x i8] c"}\00", align 1

; Function Attrs: nounwind uwtable
define internal ptr @skip_excess_element(ptr noundef %tok) #0 {
entry:
  %retval = alloca ptr, align 8
  %tok.addr = alloca ptr, align 8
  store ptr %tok, ptr %tok.addr, align 8
  %0 = load ptr, ptr %tok.addr, align 8
  %call = call zeroext i1 @equal(ptr noundef %0, ptr noundef @.str.25)
  br i1 %call, label %if.then, label %if.end

if.then:                                          ; preds = %entry
  %1 = load ptr, ptr %tok.addr, align 8
  %next = getelementptr inbounds %struct.Token, ptr %1, i32 0, i32 1
  %2 = load ptr, ptr %next, align 8
  %call1 = call ptr @skip_excess_element(ptr noundef %2)
  store ptr %call1, ptr %tok.addr, align 8
  %3 = load ptr, ptr %tok.addr, align 8
  %call2 = call ptr @skip(ptr noundef %3, ptr noundef @.str.69)
  store ptr %call2, ptr %retval, align 8
  br label %return

if.end:                                           ; preds = %entry
  %4 = load ptr, ptr %tok.addr, align 8
  %call3 = call ptr @assign(ptr noundef %tok.addr, ptr noundef %4)
  %5 = load ptr, ptr %tok.addr, align 8
  store ptr %5, ptr %retval, align 8
  br label %return

return:                                           ; preds = %if.end, %if.then
  %6 = load ptr, ptr %retval, align 8
  ret ptr %6
}