; Function Attrs: nounwind uwtable
define internal fastcc ptr @skip_excess_element(ptr noundef %tok) unnamed_addr #0 {
entry:
  %tok.addr = alloca ptr, align 8
  store ptr %tok, ptr %tok.addr, align 8
  %call = tail call zeroext i1 @equal(ptr noundef %tok, ptr noundef nonnull @.str.25) #13
  br i1 %call, label %if.then, label %if.end

common.ret1:                                      ; preds = %if.then, %if.end
  %common.ret1.op = phi ptr [ %1, %if.end ], [ %call2, %if.then ]
  ret ptr %common.ret1.op

if.then:                                          ; preds = %entry
  %next = getelementptr inbounds %struct.Token, ptr %tok, i64 0, i32 1
  %0 = load ptr, ptr %next, align 8
  %call1 = tail call fastcc ptr @skip_excess_element(ptr noundef %0)
  %call2 = tail call ptr @skip(ptr noundef %call1, ptr noundef nonnull @.str.69) #13
  br label %common.ret1

if.end:                                           ; preds = %entry
  %call3 = call fastcc ptr @assign(ptr noundef nonnull %tok.addr, ptr noundef %tok)
  %1 = load ptr, ptr %tok.addr, align 8
  br label %common.ret1
}